target datalayout = "e-m:e-p270:32:32-p271:32:32-p272:64:64-i64:64-i128:128-f80:128-n8:16:32:64-S128"
target triple = "x86_64-pc-linux-gnu"

%struct.__va_list_tag = type { i32, i32, ptr, ptr }

; Function Attrs: nounwind uwtable
define i64 @av_strlcatf(ptr noundef %0, i64 noundef %1, ptr noundef %2, ...) #0 {
  %4 = alloca ptr, align 8
  %5 = alloca i64, align 8
  %6 = alloca ptr, align 8
  %7 = alloca i64, align 8
  %8 = alloca [1 x %struct.__va_list_tag], align 16
  store ptr %0, ptr %4, align 8, !tbaa !4
  store i64 %1, ptr %5, align 8, !tbaa !19
  store ptr %2, ptr %6, align 8, !tbaa !4
  call void @llvm.lifetime.start.p0(i64 8, ptr %7) #11
  %9 = load ptr, ptr %4, align 8, !tbaa !4
  %10 = call i64 @strlen(ptr noundef %9) #12
  store i64 %10, ptr %7, align 8, !tbaa !19
  call void @llvm.lifetime.start.p0(i64 24, ptr %8) #11
  %11 = getelementptr inbounds [1 x %struct.__va_list_tag], ptr %8, i64 0, i64 0
  call void @llvm.va_start.p0(ptr %11)
  %12 = load ptr, ptr %4, align 8, !tbaa !4
  %13 = load i64, ptr %7, align 8, !tbaa !19
  %14 = getelementptr inbounds nuw i8, ptr %12, i64 %13
  %15 = load i64, ptr %5, align 8, !tbaa !19
  %16 = load i64, ptr %7, align 8, !tbaa !19
  %17 = icmp ugt i64 %15, %16
  br i1 %17, label %18, label %22

18:                                               ; preds = %3
  %19 = load i64, ptr %5, align 8, !tbaa !19
  %20 = load i64, ptr %7, align 8, !tbaa !19
  %21 = sub i64 %19, %20
  br label %23

22:                                               ; preds = %3
  br label %23

23:                                               ; preds = %22, %18
  %24 = phi i64 [ %21, %18 ], [ 0, %22 ]
  %25 = load ptr, ptr %6, align 8, !tbaa !4
  %26 = getelementptr inbounds [1 x %struct.__va_list_tag], ptr %8, i64 0, i64 0
  %27 = call i32 @vsnprintf(ptr noundef %14, i64 noundef %24, ptr noundef %25, ptr noundef %26) #11
  %28 = sext i32 %27 to i64
  %29 = load i64, ptr %7, align 8, !tbaa !19
  %30 = add i64 %29, %28
  store i64 %30, ptr %7, align 8, !tbaa !19
  %31 = getelementptr inbounds [1 x %struct.__va_list_tag], ptr %8, i64 0, i64 0
  call void @llvm.va_end.p0(ptr %31)
  %32 = load i64, ptr %7, align 8, !tbaa !19
  call void @llvm.lifetime.end.p0(i64 24, ptr %8) #11
  call void @llvm.lifetime.end.p0(i64 8, ptr %7) #11
  ret i64 %32
}