; Function Attrs: nofree nounwind uwtable
define i64 @av_strlcatf(ptr noundef captures(none) %0, i64 noundef %1, ptr noundef readonly captures(none) %2, ...) local_unnamed_addr #6 {
  %4 = alloca [1 x %struct.__va_list_tag], align 16
  %5 = tail call i64 @strlen(ptr noundef nonnull dereferenceable(1) %0) #18
  call void @llvm.lifetime.start.p0(i64 24, ptr nonnull %4) #19
  call void @llvm.va_start.p0(ptr nonnull %4)
  %6 = getelementptr inbounds nuw i8, ptr %0, i64 %5
  %7 = call i64 @llvm.usub.sat.i64(i64 %1, i64 %5)
  %8 = call i32 @vsnprintf(ptr noundef nonnull %6, i64 noundef %7, ptr noundef %2, ptr noundef nonnull %4) #19
  %9 = sext i32 %8 to i64
  %10 = add i64 %5, %9
  call void @llvm.va_end.p0(ptr nonnull %4)
  call void @llvm.lifetime.end.p0(i64 24, ptr nonnull %4) #19
  ret i64 %10
}